; Function Attrs: mustprogress uwtable
define hidden noundef nonnull align 8 dereferenceable(32) ptr @_ZN4cvc58internal19RealAlgebraicNumbermIERKS1_(ptr noundef nonnull returned align 8 dereferenceable(32) %0, ptr noundef nonnull align 8 dereferenceable(32) %1) local_unnamed_addr #0 align 2 personality ptr @__gxx_personality_v0 {
  %3 = alloca %"class.cvc5::internal::Rational", align 8
  call void @llvm.lifetime.start.p0(i64 32, ptr nonnull %3) #20
  call void @_ZNK4cvc58internal8RationalmiERKS1_(ptr dead_on_unwind nonnull writable sret(%"class.cvc5::internal::Rational") align 8 %3, ptr noundef nonnull align 8 dereferenceable(32) %0, ptr noundef nonnull align 8 dereferenceable(32) %1)
  %4 = icmp eq ptr %0, %3
  br i1 %4, label %_ZN4cvc58internal8RationalaSERKS1_.exit, label %5

5:                                                ; preds = %2
  invoke void @__gmpq_set(ptr noundef nonnull align 8 dereferenceable(32) %0, ptr noundef nonnull align 8 dereferenceable(32) %3)
          to label %_ZN4cvc58internal8RationalaSERKS1_.exit unwind label %9

_ZN4cvc58internal8RationalaSERKS1_.exit:          ; preds = %2, %5
  invoke void @__gmpq_clear(ptr noundef nonnull align 8 dereferenceable(32) %3)
          to label %_ZN4cvc58internal8RationalD2Ev.exit unwind label %6

6:                                                ; preds = %_ZN4cvc58internal8RationalaSERKS1_.exit
  %7 = landingpad { ptr, i32 }
          catch ptr null
  %8 = extractvalue { ptr, i32 } %7, 0
  call void @__clang_call_terminate(ptr %8) #19
  unreachable

_ZN4cvc58internal8RationalD2Ev.exit:              ; preds = %_ZN4cvc58internal8RationalaSERKS1_.exit
  call void @llvm.lifetime.end.p0(i64 32, ptr nonnull %3) #20
  ret ptr %0

9:                                                ; preds = %5
  %10 = landingpad { ptr, i32 }
          cleanup
  invoke void @__gmpq_clear(ptr noundef nonnull align 8 dereferenceable(32) %3)
          to label %_ZN4cvc58internal8RationalD2Ev.exit3 unwind label %11

11:                                               ; preds = %9
  %12 = landingpad { ptr, i32 }
          catch ptr null
  %13 = extractvalue { ptr, i32 } %12, 0
  call void @__clang_call_terminate(ptr %13) #19
  unreachable

_ZN4cvc58internal8RationalD2Ev.exit3:             ; preds = %9
  call void @llvm.lifetime.end.p0(i64 32, ptr nonnull %3) #20
  resume { ptr, i32 } %10
}